target datalayout = "e-m:e-p270:32:32-p271:32:32-p272:64:64-i64:64-i128:128-f80:128-n8:16:32:64-S128"
target triple = "x86_64-pc-linux-gnu"

%"class.icu_77::LocalePriorityList" = type { ptr, i32, i32, i8, ptr }
%"struct.icu_77::LocaleAndWeightArray" = type { %"class.icu_77::MaybeStackArray.0" }
%"class.icu_77::MaybeStackArray.0" = type { ptr, i32, i8, [20 x %"struct.icu_77::(anonymous namespace)::LocaleAndWeight"] }
%"struct.icu_77::(anonymous namespace)::LocaleAndWeight" = type { ptr, i32, i32 }

; Function Attrs: mustprogress nounwind uwtable
define internal noundef nonnull align 8 dereferenceable(16) ptr @_ZN6icu_7715MaybeStackArrayINS_12_GLOBAL__N_115LocaleAndWeightELi20EEixEl(ptr noundef nonnull align 8 dereferenceable(336) %0, i64 noundef %1) #0 align 2 {
  %3 = alloca ptr, align 8
  %4 = alloca i64, align 8
  store ptr %0, ptr %3, align 8, !tbaa !69
  store i64 %1, ptr %4, align 8, !tbaa !18
  %5 = load ptr, ptr %3, align 8
  %6 = getelementptr inbounds nuw %"class.icu_77::MaybeStackArray.0", ptr %5, i32 0, i32 0
  %7 = load ptr, ptr %6, align 8, !tbaa !71
  %8 = load i64, ptr %4, align 8, !tbaa !18
  %9 = getelementptr inbounds %"struct.icu_77::(anonymous namespace)::LocaleAndWeight", ptr %7, i64 %8
  ret ptr %9
}

; Function Attrs: mustprogress uwtable
define noundef ptr @_ZN6icu_7718LocalePriorityList14orphanLocaleAtEi(ptr noundef nonnull align 8 dereferenceable(32) %0, i32 noundef %1) #1 align 2 {
  %3 = alloca ptr, align 8
  %4 = alloca ptr, align 8
  %5 = alloca i32, align 4
  %6 = alloca ptr, align 8
  %7 = alloca ptr, align 8
  store ptr %0, ptr %4, align 8, !tbaa !23
  store i32 %1, ptr %5, align 4, !tbaa !14
  %8 = load ptr, ptr %4, align 8
  %9 = getelementptr inbounds nuw %"class.icu_77::LocalePriorityList", ptr %8, i32 0, i32 0
  %10 = load ptr, ptr %9, align 8, !tbaa !25
  %11 = icmp eq ptr %10, null
  br i1 %11, label %12, label %13

12:                                               ; preds = %2
  store ptr null, ptr %3, align 8
  br label %26

13:                                               ; preds = %2
  call void @llvm.lifetime.start.p0(i64 8, ptr %6) #11
  %14 = getelementptr inbounds nuw %"class.icu_77::LocalePriorityList", ptr %8, i32 0, i32 0
  %15 = load ptr, ptr %14, align 8, !tbaa !25
  %16 = getelementptr inbounds nuw %"struct.icu_77::LocaleAndWeightArray", ptr %15, i32 0, i32 0
  %17 = load i32, ptr %5, align 4, !tbaa !14
  %18 = sext i32 %17 to i64
  %19 = call noundef nonnull align 8 dereferenceable(16) ptr @_ZN6icu_7715MaybeStackArrayINS_12_GLOBAL__N_115LocaleAndWeightELi20EEixEl(ptr noundef nonnull align 8 dereferenceable(336) %16, i64 noundef %18)
  store ptr %19, ptr %6, align 8, !tbaa !58
  call void @llvm.lifetime.start.p0(i64 8, ptr %7) #11
  %20 = load ptr, ptr %6, align 8, !tbaa !58
  %21 = getelementptr inbounds nuw %"struct.icu_77::(anonymous namespace)::LocaleAndWeight", ptr %20, i32 0, i32 0
  %22 = load ptr, ptr %21, align 8, !tbaa !60
  store ptr %22, ptr %7, align 8, !tbaa !49
  %23 = load ptr, ptr %6, align 8, !tbaa !58
  %24 = getelementptr inbounds nuw %"struct.icu_77::(anonymous namespace)::LocaleAndWeight", ptr %23, i32 0, i32 0
  store ptr null, ptr %24, align 8, !tbaa !60
  %25 = load ptr, ptr %7, align 8, !tbaa !49
  store ptr %25, ptr %3, align 8
  call void @llvm.lifetime.end.p0(i64 8, ptr %7) #11
  call void @llvm.lifetime.end.p0(i64 8, ptr %6) #11
  br label %26

26:                                               ; preds = %13, %12
  %27 = load ptr, ptr %3, align 8
  ret ptr %27
}