; Function Attrs: mustprogress nofree norecurse nosync nounwind willreturn memory(readwrite, inaccessiblemem: none) uwtable
define noundef ptr @_ZN6icu_7718LocalePriorityList14orphanLocaleAtEi(ptr noundef nonnull readonly align 8 captures(none) dereferenceable(32) %0, i32 noundef %1) local_unnamed_addr #14 align 2 {
  %3 = load ptr, ptr %0, align 8, !tbaa !20
  %4 = icmp eq ptr %3, null
  br i1 %4, label %9, label %5

5:                                                ; preds = %2
  %6 = sext i32 %1 to i64
  %.val = load ptr, ptr %3, align 8, !tbaa !21
  %7 = getelementptr inbounds %"struct.icu_77::(anonymous namespace)::LocaleAndWeight", ptr %.val, i64 %6
  %8 = load ptr, ptr %7, align 8, !tbaa !42
  store ptr null, ptr %7, align 8, !tbaa !42
  br label %9

9:                                                ; preds = %2, %5
  %.0 = phi ptr [ %8, %5 ], [ null, %2 ]
  ret ptr %.0
}